target datalayout = "e-m:e-p270:32:32-p271:32:32-p272:64:64-i64:64-i128:128-f80:128-n8:16:32:64-S128"
target triple = "x86_64-pc-linux-gnu"

%struct.macroblockd = type { i32, i32, i32, i8, [3 x %struct.macroblockd_plane], %struct.TileInfo, ptr, i8, i8, i8, i8, ptr, ptr, ptr, ptr, ptr, i32, i32, i32, i32, i32, [2 x ptr], ptr, [3 x ptr], [3 x [32 x i8]], ptr, [32 x i8], ptr, ptr, [32 x i8], [3 x %struct.WienerInfo], [3 x %struct.SgrprojInfo], i8, i8, [29 x [8 x %struct.candidate_mv]], [29 x [8 x i16]], i8, i8, [8 x i8], ptr, i32, [8 x i32], [8 x i32], i32, i32, ptr, ptr, i8, [4 x i8], [4 x i8], [7 x i8], [32768 x i8], %struct.cfl_ctx, [2 x i16], ptr, [2 x ptr] }
%struct.macroblockd_plane = type { i8, i32, i32, %struct.buf_2d, [2 x %struct.buf_2d], ptr, ptr, [8 x [2 x i16]], ptr, i8, i8, [8 x [19 x ptr]], [8 x [19 x ptr]] }
%struct.buf_2d = type { ptr, ptr, i32, i32, i32 }
%struct.TileInfo = type { i32, i32, i32, i32, i32, i32 }
%struct.WienerInfo = type { [8 x i16], [8 x i16] }
%struct.SgrprojInfo = type { i32, [2 x i32] }
%struct.candidate_mv = type { %union.int_mv, %union.int_mv }
%union.int_mv = type { i32 }
%struct.cfl_ctx = type { [1024 x i16], [1024 x i16], [2 x i32], i32, [2 x [32 x i16]], i32, i32, i32, i32, i32, i32 }

@mi_size_wide = internal constant [22 x i8] c"\01\01\02\02\02\04\04\04\08\08\08\10\10\10  \01\04\02\08\04\10", align 16
@mi_size_high = internal constant [22 x i8] c"\01\02\01\02\04\02\04\08\04\08\10\08\10 \10 \04\01\08\02\10\04", align 16

; Function Attrs: nounwind uwtable
define internal void @set_mi_row_col(ptr noundef %0, ptr noundef %1, i32 noundef %2, i32 noundef %3, i32 noundef %4, i32 noundef %5, i32 noundef %6, i32 noundef %7) #0 {
  %9 = alloca ptr, align 8
  %10 = alloca ptr, align 8
  %11 = alloca i32, align 4
  %12 = alloca i32, align 4
  %13 = alloca i32, align 4
  %14 = alloca i32, align 4
  %15 = alloca i32, align 4
  %16 = alloca i32, align 4
  %17 = alloca i32, align 4
  %18 = alloca i32, align 4
  %19 = alloca i32, align 4
  %20 = alloca ptr, align 8
  %21 = alloca ptr, align 8
  %22 = alloca ptr, align 8
  store ptr %0, ptr %9, align 8
  store ptr %1, ptr %10, align 8
  store i32 %2, ptr %11, align 4
  store i32 %3, ptr %12, align 4
  store i32 %4, ptr %13, align 4
  store i32 %5, ptr %14, align 4
  store i32 %6, ptr %15, align 4
  store i32 %7, ptr %16, align 4
  %23 = load i32, ptr %11, align 4
  %24 = mul nsw i32 %23, 4
  %25 = mul nsw i32 %24, 8
  %26 = sub nsw i32 0, %25
  %27 = load ptr, ptr %9, align 8
  %28 = getelementptr inbounds nuw %struct.macroblockd, ptr %27, i32 0, i32 19
  store i32 %26, ptr %28, align 4
  %29 = load i32, ptr %15, align 4
  %30 = load i32, ptr %12, align 4
  %31 = sub nsw i32 %29, %30
  %32 = load i32, ptr %11, align 4
  %33 = sub nsw i32 %31, %32
  %34 = mul nsw i32 %33, 4
  %35 = mul nsw i32 %34, 8
  %36 = load ptr, ptr %9, align 8
  %37 = getelementptr inbounds nuw %struct.macroblockd, ptr %36, i32 0, i32 20
  store i32 %35, ptr %37, align 16
  %38 = load i32, ptr %13, align 4
  %39 = mul nsw i32 %38, 4
  %40 = mul nsw i32 %39, 8
  %41 = sub nsw i32 0, %40
  %42 = load ptr, ptr %9, align 8
  %43 = getelementptr inbounds nuw %struct.macroblockd, ptr %42, i32 0, i32 17
  store i32 %41, ptr %43, align 4
  %44 = load i32, ptr %16, align 4
  %45 = load i32, ptr %14, align 4
  %46 = sub nsw i32 %44, %45
  %47 = load i32, ptr %13, align 4
  %48 = sub nsw i32 %46, %47
  %49 = mul nsw i32 %48, 4
  %50 = mul nsw i32 %49, 8
  %51 = load ptr, ptr %9, align 8
  %52 = getelementptr inbounds nuw %struct.macroblockd, ptr %51, i32 0, i32 18
  store i32 %50, ptr %52, align 8
  %53 = load i32, ptr %11, align 4
  %54 = load ptr, ptr %9, align 8
  %55 = getelementptr inbounds nuw %struct.macroblockd, ptr %54, i32 0, i32 0
  store i32 %53, ptr %55, align 16
  %56 = load i32, ptr %13, align 4
  %57 = load ptr, ptr %9, align 8
  %58 = getelementptr inbounds nuw %struct.macroblockd, ptr %57, i32 0, i32 1
  store i32 %56, ptr %58, align 4
  %59 = load i32, ptr %11, align 4
  %60 = load ptr, ptr %10, align 8
  %61 = getelementptr inbounds nuw %struct.TileInfo, ptr %60, i32 0, i32 0
  %62 = load i32, ptr %61, align 4
  %63 = icmp sgt i32 %59, %62
  %64 = load ptr, ptr %9, align 8
  %65 = getelementptr inbounds nuw %struct.macroblockd, ptr %64, i32 0, i32 7
  %66 = zext i1 %63 to i8
  store i8 %66, ptr %65, align 16
  %67 = load ptr, ptr %9, align 8
  %68 = getelementptr inbounds nuw %struct.macroblockd, ptr %67, i32 0, i32 4
  %69 = getelementptr inbounds [3 x %struct.macroblockd_plane], ptr %68, i64 0, i64 1
  %70 = getelementptr inbounds nuw %struct.macroblockd_plane, ptr %69, i32 0, i32 1
  %71 = load i32, ptr %70, align 4
  store i32 %71, ptr %17, align 4
  %72 = load ptr, ptr %9, align 8
  %73 = getelementptr inbounds nuw %struct.macroblockd, ptr %72, i32 0, i32 4
  %74 = getelementptr inbounds [3 x %struct.macroblockd_plane], ptr %73, i64 0, i64 1
  %75 = getelementptr inbounds nuw %struct.macroblockd_plane, ptr %74, i32 0, i32 2
  %76 = load i32, ptr %75, align 8
  store i32 %76, ptr %18, align 4
  %77 = load i32, ptr %13, align 4
  %78 = load ptr, ptr %10, align 8
  %79 = getelementptr inbounds nuw %struct.TileInfo, ptr %78, i32 0, i32 2
  %80 = load i32, ptr %79, align 4
  %81 = icmp sgt i32 %77, %80
  %82 = load ptr, ptr %9, align 8
  %83 = getelementptr inbounds nuw %struct.macroblockd, ptr %82, i32 0, i32 8
  %84 = zext i1 %81 to i8
  store i8 %84, ptr %83, align 1
  %85 = load ptr, ptr %9, align 8
  %86 = getelementptr inbounds nuw %struct.macroblockd, ptr %85, i32 0, i32 7
  %87 = load i8, ptr %86, align 16
  %88 = trunc i8 %87 to i1
  %89 = load ptr, ptr %9, align 8
  %90 = getelementptr inbounds nuw %struct.macroblockd, ptr %89, i32 0, i32 9
  %91 = zext i1 %88 to i8
  store i8 %91, ptr %90, align 2
  %92 = load ptr, ptr %9, align 8
  %93 = getelementptr inbounds nuw %struct.macroblockd, ptr %92, i32 0, i32 8
  %94 = load i8, ptr %93, align 1
  %95 = trunc i8 %94 to i1
  %96 = load ptr, ptr %9, align 8
  %97 = getelementptr inbounds nuw %struct.macroblockd, ptr %96, i32 0, i32 10
  %98 = zext i1 %95 to i8
  store i8 %98, ptr %97, align 1
  %99 = load i32, ptr %17, align 4
  %100 = icmp ne i32 %99, 0
  br i1 %100, label %101, label %116

101:                                              ; preds = %8
  %102 = load i32, ptr %14, align 4
  %103 = load i8, ptr getelementptr inbounds ([22 x i8], ptr @mi_size_wide, i64 0, i64 3), align 1
  %104 = zext i8 %103 to i32
  %105 = icmp slt i32 %102, %104
  br i1 %105, label %106, label %116

106:                                              ; preds = %101
  %107 = load i32, ptr %13, align 4
  %108 = sub nsw i32 %107, 1
  %109 = load ptr, ptr %10, align 8
  %110 = getelementptr inbounds nuw %struct.TileInfo, ptr %109, i32 0, i32 2
  %111 = load i32, ptr %110, align 4
  %112 = icmp sgt i32 %108, %111
  %113 = load ptr, ptr %9, align 8
  %114 = getelementptr inbounds nuw %struct.macroblockd, ptr %113, i32 0, i32 10
  %115 = zext i1 %112 to i8
  store i8 %115, ptr %114, align 1
  br label %116

116:                                              ; preds = %106, %101, %8
  %117 = load i32, ptr %18, align 4
  %118 = icmp ne i32 %117, 0
  br i1 %118, label %119, label %134

119:                                              ; preds = %116
  %120 = load i32, ptr %12, align 4
  %121 = load i8, ptr getelementptr inbounds ([22 x i8], ptr @mi_size_high, i64 0, i64 3), align 1
  %122 = zext i8 %121 to i32
  %123 = icmp slt i32 %120, %122
  br i1 %123, label %124, label %134

124:                                              ; preds = %119
  %125 = load i32, ptr %11, align 4
  %126 = sub nsw i32 %125, 1
  %127 = load ptr, ptr %10, align 8
  %128 = getelementptr inbounds nuw %struct.TileInfo, ptr %127, i32 0, i32 0
  %129 = load i32, ptr %128, align 4
  %130 = icmp sgt i32 %126, %129
  %131 = load ptr, ptr %9, align 8
  %132 = getelementptr inbounds nuw %struct.macroblockd, ptr %131, i32 0, i32 9
  %133 = zext i1 %130 to i8
  store i8 %133, ptr %132, align 2
  br label %134

134:                                              ; preds = %124, %119, %116
  %135 = load ptr, ptr %9, align 8
  %136 = getelementptr inbounds nuw %struct.macroblockd, ptr %135, i32 0, i32 7
  %137 = load i8, ptr %136, align 16
  %138 = trunc i8 %137 to i1
  br i1 %138, label %139, label %152

139:                                              ; preds = %134
  %140 = load ptr, ptr %9, align 8
  %141 = getelementptr inbounds nuw %struct.macroblockd, ptr %140, i32 0, i32 6
  %142 = load ptr, ptr %141, align 8
  %143 = load ptr, ptr %9, align 8
  %144 = getelementptr inbounds nuw %struct.macroblockd, ptr %143, i32 0, i32 2
  %145 = load i32, ptr %144, align 8
  %146 = sub nsw i32 0, %145
  %147 = sext i32 %146 to i64
  %148 = getelementptr inbounds ptr, ptr %142, i64 %147
  %149 = load ptr, ptr %148, align 8
  %150 = load ptr, ptr %9, align 8
  %151 = getelementptr inbounds nuw %struct.macroblockd, ptr %150, i32 0, i32 12
  store ptr %149, ptr %151, align 16
  br label %155

152:                                              ; preds = %134
  %153 = load ptr, ptr %9, align 8
  %154 = getelementptr inbounds nuw %struct.macroblockd, ptr %153, i32 0, i32 12
  store ptr null, ptr %154, align 16
  br label %155

155:                                              ; preds = %152, %139
  %156 = load ptr, ptr %9, align 8
  %157 = getelementptr inbounds nuw %struct.macroblockd, ptr %156, i32 0, i32 8
  %158 = load i8, ptr %157, align 1
  %159 = trunc i8 %158 to i1
  br i1 %159, label %160, label %168

160:                                              ; preds = %155
  %161 = load ptr, ptr %9, align 8
  %162 = getelementptr inbounds nuw %struct.macroblockd, ptr %161, i32 0, i32 6
  %163 = load ptr, ptr %162, align 8
  %164 = getelementptr inbounds ptr, ptr %163, i64 -1
  %165 = load ptr, ptr %164, align 8
  %166 = load ptr, ptr %9, align 8
  %167 = getelementptr inbounds nuw %struct.macroblockd, ptr %166, i32 0, i32 11
  store ptr %165, ptr %167, align 8
  br label %171

168:                                              ; preds = %155
  %169 = load ptr, ptr %9, align 8
  %170 = getelementptr inbounds nuw %struct.macroblockd, ptr %169, i32 0, i32 11
  store ptr null, ptr %170, align 8
  br label %171

171:                                              ; preds = %168, %160
  %172 = load i32, ptr %11, align 4
  %173 = and i32 %172, 1
  %174 = icmp ne i32 %173, 0
  br i1 %174, label %182, label %175

175:                                              ; preds = %171
  %176 = load i32, ptr %12, align 4
  %177 = and i32 %176, 1
  %178 = icmp ne i32 %177, 0
  br i1 %178, label %179, label %182

179:                                              ; preds = %175
  %180 = load i32, ptr %18, align 4
  %181 = icmp ne i32 %180, 0
  br i1 %181, label %196, label %182

182:                                              ; preds = %179, %175, %171
  %183 = load i32, ptr %13, align 4
  %184 = and i32 %183, 1
  %185 = icmp ne i32 %184, 0
  br i1 %185, label %194, label %186

186:                                              ; preds = %182
  %187 = load i32, ptr %14, align 4
  %188 = and i32 %187, 1
  %189 = icmp ne i32 %188, 0
  br i1 %189, label %190, label %194

190:                                              ; preds = %186
  %191 = load i32, ptr %17, align 4
  %192 = icmp ne i32 %191, 0
  %193 = xor i1 %192, true
  br label %194

194:                                              ; preds = %190, %186, %182
  %195 = phi i1 [ true, %186 ], [ true, %182 ], [ %193, %190 ]
  br label %196

196:                                              ; preds = %194, %179
  %197 = phi i1 [ false, %179 ], [ %195, %194 ]
  %198 = zext i1 %197 to i32
  store i32 %198, ptr %19, align 4
  %199 = load i32, ptr %19, align 4
  %200 = icmp ne i32 %199, 0
  %201 = load ptr, ptr %9, align 8
  %202 = getelementptr inbounds nuw %struct.macroblockd, ptr %201, i32 0, i32 3
  %203 = zext i1 %200 to i8
  store i8 %203, ptr %202, align 4
  %204 = load i32, ptr %19, align 4
  %205 = icmp ne i32 %204, 0
  br i1 %205, label %206, label %266

206:                                              ; preds = %196
  %207 = load ptr, ptr %9, align 8
  %208 = getelementptr inbounds nuw %struct.macroblockd, ptr %207, i32 0, i32 6
  %209 = load ptr, ptr %208, align 8
  %210 = load i32, ptr %11, align 4
  %211 = load i32, ptr %18, align 4
  %212 = and i32 %210, %211
  %213 = sub nsw i32 0, %212
  %214 = load ptr, ptr %9, align 8
  %215 = getelementptr inbounds nuw %struct.macroblockd, ptr %214, i32 0, i32 2
  %216 = load i32, ptr %215, align 8
  %217 = mul nsw i32 %213, %216
  %218 = load i32, ptr %13, align 4
  %219 = load i32, ptr %17, align 4
  %220 = and i32 %218, %219
  %221 = sub nsw i32 %217, %220
  %222 = sext i32 %221 to i64
  %223 = getelementptr inbounds ptr, ptr %209, i64 %222
  store ptr %223, ptr %20, align 8
  %224 = load ptr, ptr %9, align 8
  %225 = getelementptr inbounds nuw %struct.macroblockd, ptr %224, i32 0, i32 9
  %226 = load i8, ptr %225, align 2
  %227 = trunc i8 %226 to i1
  br i1 %227, label %228, label %239

228:                                              ; preds = %206
  %229 = load ptr, ptr %20, align 8
  %230 = load ptr, ptr %9, align 8
  %231 = getelementptr inbounds nuw %struct.macroblockd, ptr %230, i32 0, i32 2
  %232 = load i32, ptr %231, align 8
  %233 = sub nsw i32 0, %232
  %234 = load i32, ptr %17, align 4
  %235 = add nsw i32 %233, %234
  %236 = sext i32 %235 to i64
  %237 = getelementptr inbounds ptr, ptr %229, i64 %236
  %238 = load ptr, ptr %237, align 8
  br label %240

239:                                              ; preds = %206
  br label %240

240:                                              ; preds = %239, %228
  %241 = phi ptr [ %238, %228 ], [ null, %239 ]
  store ptr %241, ptr %21, align 8
  %242 = load ptr, ptr %21, align 8
  %243 = load ptr, ptr %9, align 8
  %244 = getelementptr inbounds nuw %struct.macroblockd, ptr %243, i32 0, i32 14
  store ptr %242, ptr %244, align 16
  %245 = load ptr, ptr %9, align 8
  %246 = getelementptr inbounds nuw %struct.macroblockd, ptr %245, i32 0, i32 10
  %247 = load i8, ptr %246, align 1
  %248 = trunc i8 %247 to i1
  br i1 %248, label %249, label %260

249:                                              ; preds = %240
  %250 = load ptr, ptr %20, align 8
  %251 = load i32, ptr %18, align 4
  %252 = load ptr, ptr %9, align 8
  %253 = getelementptr inbounds nuw %struct.macroblockd, ptr %252, i32 0, i32 2
  %254 = load i32, ptr %253, align 8
  %255 = mul nsw i32 %251, %254
  %256 = sub nsw i32 %255, 1
  %257 = sext i32 %256 to i64
  %258 = getelementptr inbounds ptr, ptr %250, i64 %257
  %259 = load ptr, ptr %258, align 8
  br label %261

260:                                              ; preds = %240
  br label %261

261:                                              ; preds = %260, %249
  %262 = phi ptr [ %259, %249 ], [ null, %260 ]
  store ptr %262, ptr %22, align 8
  %263 = load ptr, ptr %22, align 8
  %264 = load ptr, ptr %9, align 8
  %265 = getelementptr inbounds nuw %struct.macroblockd, ptr %264, i32 0, i32 13
  store ptr %263, ptr %265, align 8
  br label %266

266:                                              ; preds = %261, %196
  %267 = load i32, ptr %12, align 4
  %268 = trunc i32 %267 to i8
  %269 = load ptr, ptr %9, align 8
  %270 = getelementptr inbounds nuw %struct.macroblockd, ptr %269, i32 0, i32 33
  store i8 %268, ptr %270, align 1
  %271 = load i32, ptr %14, align 4
  %272 = trunc i32 %271 to i8
  %273 = load ptr, ptr %9, align 8
  %274 = getelementptr inbounds nuw %struct.macroblockd, ptr %273, i32 0, i32 32
  store i8 %272, ptr %274, align 4
  %275 = load ptr, ptr %9, align 8
  %276 = getelementptr inbounds nuw %struct.macroblockd, ptr %275, i32 0, i32 36
  store i8 0, ptr %276, align 8
  %277 = load ptr, ptr %9, align 8
  %278 = getelementptr inbounds nuw %struct.macroblockd, ptr %277, i32 0, i32 32
  %279 = load i8, ptr %278, align 4
  %280 = zext i8 %279 to i32
  %281 = load ptr, ptr %9, align 8
  %282 = getelementptr inbounds nuw %struct.macroblockd, ptr %281, i32 0, i32 33
  %283 = load i8, ptr %282, align 1
  %284 = zext i8 %283 to i32
  %285 = icmp slt i32 %280, %284
  br i1 %285, label %286, label %304

286:                                              ; preds = %266
  %287 = load i32, ptr %13, align 4
  %288 = load ptr, ptr %9, align 8
  %289 = getelementptr inbounds nuw %struct.macroblockd, ptr %288, i32 0, i32 32
  %290 = load i8, ptr %289, align 4
  %291 = zext i8 %290 to i32
  %292 = add nsw i32 %287, %291
  %293 = load ptr, ptr %9, align 8
  %294 = getelementptr inbounds nuw %struct.macroblockd, ptr %293, i32 0, i32 33
  %295 = load i8, ptr %294, align 1
  %296 = zext i8 %295 to i32
  %297 = sub nsw i32 %296, 1
  %298 = and i32 %292, %297
  %299 = icmp ne i32 %298, 0
  br i1 %299, label %303, label %300

300:                                              ; preds = %286
  %301 = load ptr, ptr %9, align 8
  %302 = getelementptr inbounds nuw %struct.macroblockd, ptr %301, i32 0, i32 36
  store i8 1, ptr %302, align 8
  br label %303

303:                                              ; preds = %300, %286
  br label %304

304:                                              ; preds = %303, %266
  %305 = load ptr, ptr %9, align 8
  %306 = getelementptr inbounds nuw %struct.macroblockd, ptr %305, i32 0, i32 37
  store i8 0, ptr %306, align 1
  %307 = load ptr, ptr %9, align 8
  %308 = getelementptr inbounds nuw %struct.macroblockd, ptr %307, i32 0, i32 32
  %309 = load i8, ptr %308, align 4
  %310 = zext i8 %309 to i32
  %311 = load ptr, ptr %9, align 8
  %312 = getelementptr inbounds nuw %struct.macroblockd, ptr %311, i32 0, i32 33
  %313 = load i8, ptr %312, align 1
  %314 = zext i8 %313 to i32
  %315 = icmp sgt i32 %310, %314
  br i1 %315, label %316, label %329

316:                                              ; preds = %304
  %317 = load i32, ptr %11, align 4
  %318 = load ptr, ptr %9, align 8
  %319 = getelementptr inbounds nuw %struct.macroblockd, ptr %318, i32 0, i32 32
  %320 = load i8, ptr %319, align 4
  %321 = zext i8 %320 to i32
  %322 = sub nsw i32 %321, 1
  %323 = and i32 %317, %322
  %324 = icmp ne i32 %323, 0
  br i1 %324, label %328, label %325

325:                                              ; preds = %316
  %326 = load ptr, ptr %9, align 8
  %327 = getelementptr inbounds nuw %struct.macroblockd, ptr %326, i32 0, i32 37
  store i8 1, ptr %327, align 1
  br label %328

328:                                              ; preds = %325, %316
  br label %329

329:                                              ; preds = %328, %304
  ret void
}