; Function Attrs: mustprogress nofree norecurse nosync nounwind willreturn memory(read, argmem: readwrite, inaccessiblemem: none) uwtable
define internal fastcc void @set_mi_row_col(ptr noundef captures(none) initializes((0, 8), (12, 13), (7872, 7876), (7880, 7896), (7924, 7940), (8308, 8310), (10632, 10634)) %0, ptr noundef readonly captures(none) %1, i32 noundef %2, i32 noundef range(i32 0, 256) %3, i32 noundef %4, i32 noundef range(i32 0, 256) %5, i32 noundef %6, i32 noundef %7) unnamed_addr #12 {
  %.neg = mul nsw i32 %2, -32
  %9 = getelementptr inbounds nuw i8, ptr %0, i64 7932
  store i32 %.neg, ptr %9, align 4
  %10 = add i32 %3, %2
  %11 = sub i32 %6, %10
  %12 = shl nsw i32 %11, 5
  %13 = getelementptr inbounds nuw i8, ptr %0, i64 7936
  store i32 %12, ptr %13, align 16
  %.neg93 = mul nsw i32 %4, -32
  %14 = getelementptr inbounds nuw i8, ptr %0, i64 7924
  store i32 %.neg93, ptr %14, align 4
  %15 = add i32 %5, %4
  %16 = sub i32 %7, %15
  %17 = shl nsw i32 %16, 5
  %18 = getelementptr inbounds nuw i8, ptr %0, i64 7928
  store i32 %17, ptr %18, align 8
  store i32 %2, ptr %0, align 16
  %19 = getelementptr inbounds nuw i8, ptr %0, i64 4
  store i32 %4, ptr %19, align 4
  %20 = load i32, ptr %1, align 4
  %21 = icmp sgt i32 %2, %20
  %22 = getelementptr inbounds nuw i8, ptr %0, i64 7872
  %23 = zext i1 %21 to i8
  store i8 %23, ptr %22, align 16
  %24 = getelementptr inbounds nuw i8, ptr %0, i64 2628
  %25 = load i32, ptr %24, align 4
  %26 = getelementptr inbounds nuw i8, ptr %0, i64 2632
  %27 = load i32, ptr %26, align 8
  %28 = getelementptr inbounds nuw i8, ptr %1, i64 8
  %29 = load i32, ptr %28, align 4
  %30 = icmp sgt i32 %4, %29
  %31 = getelementptr inbounds nuw i8, ptr %0, i64 7873
  %32 = zext i1 %30 to i8
  store i8 %32, ptr %31, align 1
  %33 = getelementptr inbounds nuw i8, ptr %0, i64 7874
  store i8 %23, ptr %33, align 2
  %34 = getelementptr inbounds nuw i8, ptr %0, i64 7875
  store i8 %32, ptr %34, align 1
  %.not = icmp eq i32 %25, 0
  %35 = icmp samesign ugt i32 %5, 1
  %or.cond99.not = select i1 %.not, i1 true, i1 %35
  br i1 %or.cond99.not, label %41, label %36

36:                                               ; preds = %8
  %37 = add nsw i32 %4, -1
  %38 = load i32, ptr %28, align 4
  %39 = icmp sgt i32 %37, %38
  %40 = zext i1 %39 to i8
  store i8 %40, ptr %34, align 1
  br label %41

41:                                               ; preds = %36, %8
  %42 = phi i1 [ %39, %36 ], [ %30, %8 ]
  %43 = icmp ne i32 %27, 0
  %44 = icmp samesign ult i32 %3, 2
  %or.cond100 = select i1 %43, i1 %44, i1 false
  br i1 %or.cond100, label %45, label %50

45:                                               ; preds = %41
  %46 = add nsw i32 %2, -1
  %47 = load i32, ptr %1, align 4
  %48 = icmp sgt i32 %46, %47
  %49 = zext i1 %48 to i8
  store i8 %49, ptr %33, align 2
  br label %50

50:                                               ; preds = %45, %41
  %51 = phi i1 [ %48, %45 ], [ %21, %41 ]
  br i1 %21, label %52, label %61

52:                                               ; preds = %50
  %53 = getelementptr inbounds nuw i8, ptr %0, i64 7864
  %54 = load ptr, ptr %53, align 8
  %55 = getelementptr inbounds nuw i8, ptr %0, i64 8
  %56 = load i32, ptr %55, align 8
  %57 = sub nsw i32 0, %56
  %58 = sext i32 %57 to i64
  %59 = getelementptr inbounds ptr, ptr %54, i64 %58
  %60 = load ptr, ptr %59, align 8
  br label %61

61:                                               ; preds = %50, %52
  %.sink = phi ptr [ %60, %52 ], [ null, %50 ]
  %62 = getelementptr inbounds nuw i8, ptr %0, i64 7888
  store ptr %.sink, ptr %62, align 16
  br i1 %30, label %63, label %68

63:                                               ; preds = %61
  %64 = getelementptr inbounds nuw i8, ptr %0, i64 7864
  %65 = load ptr, ptr %64, align 8
  %66 = getelementptr inbounds i8, ptr %65, i64 -8
  %67 = load ptr, ptr %66, align 8
  br label %68

68:                                               ; preds = %61, %63
  %.sink108 = phi ptr [ %67, %63 ], [ null, %61 ]
  %69 = getelementptr inbounds nuw i8, ptr %0, i64 7880
  store ptr %.sink108, ptr %69, align 8
  %70 = and i32 %2, 1
  %.not94 = icmp eq i32 %70, 0
  br i1 %.not94, label %71, label %74

71:                                               ; preds = %68
  %72 = and i32 %3, 1
  %73 = icmp ne i32 %72, 0
  %or.cond = and i1 %73, %43
  br i1 %or.cond, label %.critedge, label %74

74:                                               ; preds = %71, %68
  %75 = and i32 %4, 1
  %.not95 = icmp ne i32 %75, 0
  %76 = and i32 %5, 1
  %.not96 = icmp eq i32 %76, 0
  %or.cond101 = or i1 %.not95, %.not96
  %77 = getelementptr inbounds nuw i8, ptr %0, i64 12
  br i1 %or.cond101, label %.critedge103, label %78

78:                                               ; preds = %74
  %79 = zext i1 %.not to i8
  store i8 %79, ptr %77, align 4
  br i1 %.not, label %80, label %110

.critedge103:                                     ; preds = %74
  store i8 1, ptr %77, align 4
  br label %80

80:                                               ; preds = %.critedge103, %78
  %81 = getelementptr inbounds nuw i8, ptr %0, i64 7864
  %82 = load ptr, ptr %81, align 8
  %83 = and i32 %27, %2
  %84 = getelementptr inbounds nuw i8, ptr %0, i64 8
  %85 = load i32, ptr %84, align 8
  %86 = mul i32 %85, %83
  %87 = and i32 %25, %4
  %88 = add i32 %87, %86
  %89 = sub i32 0, %88
  %90 = sext i32 %89 to i64
  %91 = getelementptr inbounds ptr, ptr %82, i64 %90
  br i1 %51, label %92, label %97

92:                                               ; preds = %80
  %93 = sub nsw i32 %25, %85
  %94 = sext i32 %93 to i64
  %95 = getelementptr inbounds ptr, ptr %91, i64 %94
  %96 = load ptr, ptr %95, align 8
  br label %97

97:                                               ; preds = %80, %92
  %98 = phi ptr [ %96, %92 ], [ null, %80 ]
  %99 = getelementptr inbounds nuw i8, ptr %0, i64 7904
  store ptr %98, ptr %99, align 16
  br i1 %42, label %100, label %106

100:                                              ; preds = %97
  %101 = mul nsw i32 %85, %27
  %102 = sext i32 %101 to i64
  %103 = getelementptr ptr, ptr %91, i64 %102
  %104 = getelementptr i8, ptr %103, i64 -8
  %105 = load ptr, ptr %104, align 8
  br label %106

106:                                              ; preds = %97, %100
  %107 = phi ptr [ %105, %100 ], [ null, %97 ]
  %108 = getelementptr inbounds nuw i8, ptr %0, i64 7896
  store ptr %107, ptr %108, align 8
  br label %110

.critedge:                                        ; preds = %71
  %109 = getelementptr inbounds nuw i8, ptr %0, i64 12
  store i8 0, ptr %109, align 4
  br label %110

110:                                              ; preds = %.critedge, %106, %78
  %111 = trunc nuw i32 %3 to i8
  %112 = getelementptr inbounds nuw i8, ptr %0, i64 8309
  store i8 %111, ptr %112, align 1
  %113 = trunc nuw i32 %5 to i8
  %114 = getelementptr inbounds nuw i8, ptr %0, i64 8308
  store i8 %113, ptr %114, align 4
  %115 = getelementptr inbounds nuw i8, ptr %0, i64 10632
  store i8 0, ptr %115, align 8
  %116 = icmp samesign ult i32 %5, %3
  br i1 %116, label %117, label %121

117:                                              ; preds = %110
  %118 = add nsw i32 %3, -1
  %119 = and i32 %15, %118
  %.not97 = icmp eq i32 %119, 0
  br i1 %.not97, label %120, label %121

120:                                              ; preds = %117
  store i8 1, ptr %115, align 8
  br label %121

121:                                              ; preds = %117, %120, %110
  %122 = getelementptr inbounds nuw i8, ptr %0, i64 10633
  store i8 0, ptr %122, align 1
  %123 = icmp samesign ugt i32 %5, %3
  br i1 %123, label %124, label %128

124:                                              ; preds = %121
  %125 = add nsw i32 %5, -1
  %126 = and i32 %125, %2
  %.not98 = icmp eq i32 %126, 0
  br i1 %.not98, label %127, label %128

127:                                              ; preds = %124
  store i8 1, ptr %122, align 1
  br label %128

128:                                              ; preds = %124, %127, %121
  ret void
}